target datalayout = "e-m:e-p270:32:32-p271:32:32-p272:64:64-i64:64-i128:128-f80:128-n8:16:32:64-S128"
target triple = "x86_64-pc-linux-gnu"

%struct.png_struct_def = type { [1 x %struct.__jmp_buf_tag], ptr, ptr, i64, ptr, ptr, ptr, ptr, ptr, ptr, ptr, ptr, ptr, i8, i8, i32, i32, i32, i32, %struct.z_stream_s, ptr, i32, i32, i32, i32, i32, i32, i32, i32, i32, i32, i32, i32, i32, i32, i32, i32, i32, i32, i32, i32, i32, i64, i32, i32, i32, ptr, ptr, ptr, ptr, i64, i32, i32, ptr, i16, i32, i16, i8, i8, i8, i8, i8, i8, i8, i8, i8, i8, i8, i8, i8, i8, i8, i16, i8, i32, %struct.png_color_16_struct, %struct.png_color_16_struct, ptr, i32, i32, %struct.png_xy, i32, i32, i32, i32, i32, ptr, ptr, ptr, ptr, ptr, ptr, %struct.png_color_8_struct, %struct.png_color_8_struct, ptr, %struct.png_color_16_struct, ptr, ptr, ptr, ptr, ptr, ptr, ptr, ptr, ptr, i32, i32, i64, i64, i64, i64, i32, i32, ptr, ptr, i32, [29 x i8], i32, ptr, ptr, i32, i32, ptr, i8, i8, i16, i16, ptr, i32, i8, ptr, ptr, ptr, ptr, ptr, ptr, ptr, i8, i32, i32, i32, i64, %struct.png_unknown_chunk_t, i64, ptr, i64, i32, i32, ptr, [4 x ptr] }
%struct.__jmp_buf_tag = type { [8 x i64], i32, %struct.__sigset_t }
%struct.__sigset_t = type { [16 x i64] }
%struct.z_stream_s = type { ptr, i32, i64, ptr, i32, i64, ptr, ptr, ptr, ptr, ptr, i32, i64, i64 }
%struct.png_xy = type { i32, i32, i32, i32, i32, i32, i32, i32 }
%struct.png_color_8_struct = type { i8, i8, i8, i8, i8 }
%struct.png_color_16_struct = type { i8, i16, i16, i16, i16 }
%struct.png_unknown_chunk_t = type { [5 x i8], ptr, i64, i8 }

@.str.44 = private unnamed_addr constant [15 x i8] c" using zstream\00", align 1
@.str.45 = private unnamed_addr constant [28 x i8] c"deflateEnd failed (ignored)\00", align 1
@.str.46 = private unnamed_addr constant [7 x i8] c"1.2.11\00", align 1

; Function Attrs: nounwind uwtable
define internal i32 @png_deflate_claim(ptr noalias noundef %0, i32 noundef %1, i64 noundef %2) #0 {
  %4 = alloca ptr, align 8
  %5 = alloca i32, align 4
  %6 = alloca i64, align 8
  %7 = alloca [64 x i8], align 16
  %8 = alloca i32, align 4
  %9 = alloca i32, align 4
  %10 = alloca i32, align 4
  %11 = alloca i32, align 4
  %12 = alloca i32, align 4
  %13 = alloca i32, align 4
  %14 = alloca i32, align 4
  store ptr %0, ptr %4, align 8, !tbaa !11
  store i32 %1, ptr %5, align 4, !tbaa !8
  store i64 %2, ptr %6, align 8, !tbaa !30
  %15 = load ptr, ptr %4, align 8, !tbaa !11
  %16 = getelementptr inbounds nuw %struct.png_struct_def, ptr %15, i32 0, i32 18
  %17 = load i32, ptr %16, align 8, !tbaa !61
  %18 = icmp ne i32 %17, 0
  br i1 %18, label %19, label %84

19:                                               ; preds = %3
  call void @llvm.lifetime.start.p0(i64 64, ptr %7) #7
  %20 = load i32, ptr %5, align 4, !tbaa !8
  %21 = lshr i32 %20, 24
  %22 = and i32 %21, 255
  %23 = trunc i32 %22 to i8
  %24 = getelementptr inbounds [64 x i8], ptr %7, i64 0, i64 0
  %25 = getelementptr inbounds i8, ptr %24, i64 0
  store i8 %23, ptr %25, align 16, !tbaa !10
  %26 = load i32, ptr %5, align 4, !tbaa !8
  %27 = lshr i32 %26, 16
  %28 = and i32 %27, 255
  %29 = trunc i32 %28 to i8
  %30 = getelementptr inbounds [64 x i8], ptr %7, i64 0, i64 0
  %31 = getelementptr inbounds i8, ptr %30, i64 1
  store i8 %29, ptr %31, align 1, !tbaa !10
  %32 = load i32, ptr %5, align 4, !tbaa !8
  %33 = lshr i32 %32, 8
  %34 = and i32 %33, 255
  %35 = trunc i32 %34 to i8
  %36 = getelementptr inbounds [64 x i8], ptr %7, i64 0, i64 0
  %37 = getelementptr inbounds i8, ptr %36, i64 2
  store i8 %35, ptr %37, align 2, !tbaa !10
  %38 = load i32, ptr %5, align 4, !tbaa !8
  %39 = and i32 %38, 255
  %40 = trunc i32 %39 to i8
  %41 = getelementptr inbounds [64 x i8], ptr %7, i64 0, i64 0
  %42 = getelementptr inbounds i8, ptr %41, i64 3
  store i8 %40, ptr %42, align 1, !tbaa !10
  %43 = getelementptr inbounds [64 x i8], ptr %7, i64 0, i64 4
  store i8 58, ptr %43, align 4, !tbaa !10
  %44 = getelementptr inbounds [64 x i8], ptr %7, i64 0, i64 5
  store i8 32, ptr %44, align 1, !tbaa !10
  %45 = load ptr, ptr %4, align 8, !tbaa !11
  %46 = getelementptr inbounds nuw %struct.png_struct_def, ptr %45, i32 0, i32 18
  %47 = load i32, ptr %46, align 8, !tbaa !61
  %48 = lshr i32 %47, 24
  %49 = and i32 %48, 255
  %50 = trunc i32 %49 to i8
  %51 = getelementptr inbounds [64 x i8], ptr %7, i64 0, i64 0
  %52 = getelementptr inbounds i8, ptr %51, i64 6
  %53 = getelementptr inbounds i8, ptr %52, i64 0
  store i8 %50, ptr %53, align 1, !tbaa !10
  %54 = load ptr, ptr %4, align 8, !tbaa !11
  %55 = getelementptr inbounds nuw %struct.png_struct_def, ptr %54, i32 0, i32 18
  %56 = load i32, ptr %55, align 8, !tbaa !61
  %57 = lshr i32 %56, 16
  %58 = and i32 %57, 255
  %59 = trunc i32 %58 to i8
  %60 = getelementptr inbounds [64 x i8], ptr %7, i64 0, i64 0
  %61 = getelementptr inbounds i8, ptr %60, i64 6
  %62 = getelementptr inbounds i8, ptr %61, i64 1
  store i8 %59, ptr %62, align 1, !tbaa !10
  %63 = load ptr, ptr %4, align 8, !tbaa !11
  %64 = getelementptr inbounds nuw %struct.png_struct_def, ptr %63, i32 0, i32 18
  %65 = load i32, ptr %64, align 8, !tbaa !61
  %66 = lshr i32 %65, 8
  %67 = and i32 %66, 255
  %68 = trunc i32 %67 to i8
  %69 = getelementptr inbounds [64 x i8], ptr %7, i64 0, i64 0
  %70 = getelementptr inbounds i8, ptr %69, i64 6
  %71 = getelementptr inbounds i8, ptr %70, i64 2
  store i8 %68, ptr %71, align 1, !tbaa !10
  %72 = load ptr, ptr %4, align 8, !tbaa !11
  %73 = getelementptr inbounds nuw %struct.png_struct_def, ptr %72, i32 0, i32 18
  %74 = load i32, ptr %73, align 8, !tbaa !61
  %75 = and i32 %74, 255
  %76 = trunc i32 %75 to i8
  %77 = getelementptr inbounds [64 x i8], ptr %7, i64 0, i64 0
  %78 = getelementptr inbounds i8, ptr %77, i64 6
  %79 = getelementptr inbounds i8, ptr %78, i64 3
  store i8 %76, ptr %79, align 1, !tbaa !10
  %80 = getelementptr inbounds [64 x i8], ptr %7, i64 0, i64 0
  %81 = call i64 @png_safecat(ptr noundef %80, i64 noundef 64, i64 noundef 10, ptr noundef @.str.44)
  %82 = load ptr, ptr %4, align 8, !tbaa !11
  %83 = getelementptr inbounds [64 x i8], ptr %7, i64 0, i64 0
  call void @png_error(ptr noundef %82, ptr noundef %83) #8
  unreachable

84:                                               ; preds = %3
  call void @llvm.lifetime.start.p0(i64 4, ptr %8) #7
  %85 = load ptr, ptr %4, align 8, !tbaa !11
  %86 = getelementptr inbounds nuw %struct.png_struct_def, ptr %85, i32 0, i32 22
  %87 = load i32, ptr %86, align 4, !tbaa !69
  store i32 %87, ptr %8, align 4, !tbaa !8
  call void @llvm.lifetime.start.p0(i64 4, ptr %9) #7
  %88 = load ptr, ptr %4, align 8, !tbaa !11
  %89 = getelementptr inbounds nuw %struct.png_struct_def, ptr %88, i32 0, i32 23
  %90 = load i32, ptr %89, align 8, !tbaa !70
  store i32 %90, ptr %9, align 4, !tbaa !8
  call void @llvm.lifetime.start.p0(i64 4, ptr %10) #7
  %91 = load ptr, ptr %4, align 8, !tbaa !11
  %92 = getelementptr inbounds nuw %struct.png_struct_def, ptr %91, i32 0, i32 24
  %93 = load i32, ptr %92, align 4, !tbaa !71
  store i32 %93, ptr %10, align 4, !tbaa !8
  call void @llvm.lifetime.start.p0(i64 4, ptr %11) #7
  %94 = load ptr, ptr %4, align 8, !tbaa !11
  %95 = getelementptr inbounds nuw %struct.png_struct_def, ptr %94, i32 0, i32 25
  %96 = load i32, ptr %95, align 8, !tbaa !72
  store i32 %96, ptr %11, align 4, !tbaa !8
  call void @llvm.lifetime.start.p0(i64 4, ptr %12) #7
  call void @llvm.lifetime.start.p0(i64 4, ptr %13) #7
  %97 = load i32, ptr %5, align 4, !tbaa !8
  %98 = icmp eq i32 %97, 1229209940
  br i1 %98, label %99, label %119

99:                                               ; preds = %84
  %100 = load ptr, ptr %4, align 8, !tbaa !11
  %101 = getelementptr inbounds nuw %struct.png_struct_def, ptr %100, i32 0, i32 16
  %102 = load i32, ptr %101, align 8, !tbaa !73
  %103 = and i32 %102, 1
  %104 = icmp ne i32 %103, 0
  br i1 %104, label %105, label %109

105:                                              ; preds = %99
  %106 = load ptr, ptr %4, align 8, !tbaa !11
  %107 = getelementptr inbounds nuw %struct.png_struct_def, ptr %106, i32 0, i32 26
  %108 = load i32, ptr %107, align 4, !tbaa !74
  store i32 %108, ptr %12, align 4, !tbaa !8
  br label %118

109:                                              ; preds = %99
  %110 = load ptr, ptr %4, align 8, !tbaa !11
  %111 = getelementptr inbounds nuw %struct.png_struct_def, ptr %110, i32 0, i32 61
  %112 = load i8, ptr %111, align 2, !tbaa !53
  %113 = zext i8 %112 to i32
  %114 = icmp ne i32 %113, 8
  br i1 %114, label %115, label %116

115:                                              ; preds = %109
  store i32 1, ptr %12, align 4, !tbaa !8
  br label %117

116:                                              ; preds = %109
  store i32 0, ptr %12, align 4, !tbaa !8
  br label %117

117:                                              ; preds = %116, %115
  br label %118

118:                                              ; preds = %117, %105
  br label %135

119:                                              ; preds = %84
  %120 = load ptr, ptr %4, align 8, !tbaa !11
  %121 = getelementptr inbounds nuw %struct.png_struct_def, ptr %120, i32 0, i32 27
  %122 = load i32, ptr %121, align 8, !tbaa !75
  store i32 %122, ptr %8, align 4, !tbaa !8
  %123 = load ptr, ptr %4, align 8, !tbaa !11
  %124 = getelementptr inbounds nuw %struct.png_struct_def, ptr %123, i32 0, i32 28
  %125 = load i32, ptr %124, align 4, !tbaa !76
  store i32 %125, ptr %9, align 4, !tbaa !8
  %126 = load ptr, ptr %4, align 8, !tbaa !11
  %127 = getelementptr inbounds nuw %struct.png_struct_def, ptr %126, i32 0, i32 29
  %128 = load i32, ptr %127, align 8, !tbaa !77
  store i32 %128, ptr %10, align 4, !tbaa !8
  %129 = load ptr, ptr %4, align 8, !tbaa !11
  %130 = getelementptr inbounds nuw %struct.png_struct_def, ptr %129, i32 0, i32 30
  %131 = load i32, ptr %130, align 4, !tbaa !78
  store i32 %131, ptr %11, align 4, !tbaa !8
  %132 = load ptr, ptr %4, align 8, !tbaa !11
  %133 = getelementptr inbounds nuw %struct.png_struct_def, ptr %132, i32 0, i32 31
  %134 = load i32, ptr %133, align 8, !tbaa !79
  store i32 %134, ptr %12, align 4, !tbaa !8
  br label %135

135:                                              ; preds = %119, %118
  %136 = load i64, ptr %6, align 8, !tbaa !30
  %137 = icmp ule i64 %136, 16384
  br i1 %137, label %138, label %154

138:                                              ; preds = %135
  call void @llvm.lifetime.start.p0(i64 4, ptr %14) #7
  %139 = load i32, ptr %10, align 4, !tbaa !8
  %140 = sub nsw i32 %139, 1
  %141 = shl i32 1, %140
  store i32 %141, ptr %14, align 4, !tbaa !8
  br label %142

142:                                              ; preds = %148, %138
  %143 = load i64, ptr %6, align 8, !tbaa !30
  %144 = add i64 %143, 262
  %145 = load i32, ptr %14, align 4, !tbaa !8
  %146 = zext i32 %145 to i64
  %147 = icmp ule i64 %144, %146
  br i1 %147, label %148, label %153

148:                                              ; preds = %142
  %149 = load i32, ptr %14, align 4, !tbaa !8
  %150 = lshr i32 %149, 1
  store i32 %150, ptr %14, align 4, !tbaa !8
  %151 = load i32, ptr %10, align 4, !tbaa !8
  %152 = add nsw i32 %151, -1
  store i32 %152, ptr %10, align 4, !tbaa !8
  br label %142, !llvm.loop !80

153:                                              ; preds = %142
  call void @llvm.lifetime.end.p0(i64 4, ptr %14) #7
  br label %154

154:                                              ; preds = %153, %135
  %155 = load ptr, ptr %4, align 8, !tbaa !11
  %156 = getelementptr inbounds nuw %struct.png_struct_def, ptr %155, i32 0, i32 16
  %157 = load i32, ptr %156, align 8, !tbaa !73
  %158 = and i32 %157, 2
  %159 = icmp ne i32 %158, 0
  br i1 %159, label %160, label %202

160:                                              ; preds = %154
  %161 = load ptr, ptr %4, align 8, !tbaa !11
  %162 = getelementptr inbounds nuw %struct.png_struct_def, ptr %161, i32 0, i32 32
  %163 = load i32, ptr %162, align 4, !tbaa !81
  %164 = load i32, ptr %8, align 4, !tbaa !8
  %165 = icmp ne i32 %163, %164
  br i1 %165, label %190, label %166

166:                                              ; preds = %160
  %167 = load ptr, ptr %4, align 8, !tbaa !11
  %168 = getelementptr inbounds nuw %struct.png_struct_def, ptr %167, i32 0, i32 33
  %169 = load i32, ptr %168, align 8, !tbaa !82
  %170 = load i32, ptr %9, align 4, !tbaa !8
  %171 = icmp ne i32 %169, %170
  br i1 %171, label %190, label %172

172:                                              ; preds = %166
  %173 = load ptr, ptr %4, align 8, !tbaa !11
  %174 = getelementptr inbounds nuw %struct.png_struct_def, ptr %173, i32 0, i32 34
  %175 = load i32, ptr %174, align 4, !tbaa !83
  %176 = load i32, ptr %10, align 4, !tbaa !8
  %177 = icmp ne i32 %175, %176
  br i1 %177, label %190, label %178

178:                                              ; preds = %172
  %179 = load ptr, ptr %4, align 8, !tbaa !11
  %180 = getelementptr inbounds nuw %struct.png_struct_def, ptr %179, i32 0, i32 35
  %181 = load i32, ptr %180, align 8, !tbaa !84
  %182 = load i32, ptr %11, align 4, !tbaa !8
  %183 = icmp ne i32 %181, %182
  br i1 %183, label %190, label %184

184:                                              ; preds = %178
  %185 = load ptr, ptr %4, align 8, !tbaa !11
  %186 = getelementptr inbounds nuw %struct.png_struct_def, ptr %185, i32 0, i32 36
  %187 = load i32, ptr %186, align 4, !tbaa !85
  %188 = load i32, ptr %12, align 4, !tbaa !8
  %189 = icmp ne i32 %187, %188
  br i1 %189, label %190, label %202

190:                                              ; preds = %184, %178, %172, %166, %160
  %191 = load ptr, ptr %4, align 8, !tbaa !11
  %192 = getelementptr inbounds nuw %struct.png_struct_def, ptr %191, i32 0, i32 19
  %193 = call i32 @deflateEnd(ptr noundef %192)
  %194 = icmp ne i32 %193, 0
  br i1 %194, label %195, label %197

195:                                              ; preds = %190
  %196 = load ptr, ptr %4, align 8, !tbaa !11
  call void @png_warning(ptr noundef %196, ptr noundef @.str.45)
  br label %197

197:                                              ; preds = %195, %190
  %198 = load ptr, ptr %4, align 8, !tbaa !11
  %199 = getelementptr inbounds nuw %struct.png_struct_def, ptr %198, i32 0, i32 16
  %200 = load i32, ptr %199, align 8, !tbaa !73
  %201 = and i32 %200, -3
  store i32 %201, ptr %199, align 8, !tbaa !73
  br label %202

202:                                              ; preds = %197, %184, %154
  %203 = load ptr, ptr %4, align 8, !tbaa !11
  %204 = getelementptr inbounds nuw %struct.png_struct_def, ptr %203, i32 0, i32 19
  %205 = getelementptr inbounds nuw %struct.z_stream_s, ptr %204, i32 0, i32 0
  store ptr null, ptr %205, align 8, !tbaa !67
  %206 = load ptr, ptr %4, align 8, !tbaa !11
  %207 = getelementptr inbounds nuw %struct.png_struct_def, ptr %206, i32 0, i32 19
  %208 = getelementptr inbounds nuw %struct.z_stream_s, ptr %207, i32 0, i32 1
  store i32 0, ptr %208, align 8, !tbaa !68
  %209 = load ptr, ptr %4, align 8, !tbaa !11
  %210 = getelementptr inbounds nuw %struct.png_struct_def, ptr %209, i32 0, i32 19
  %211 = getelementptr inbounds nuw %struct.z_stream_s, ptr %210, i32 0, i32 3
  store ptr null, ptr %211, align 8, !tbaa !65
  %212 = load ptr, ptr %4, align 8, !tbaa !11
  %213 = getelementptr inbounds nuw %struct.png_struct_def, ptr %212, i32 0, i32 19
  %214 = getelementptr inbounds nuw %struct.z_stream_s, ptr %213, i32 0, i32 4
  store i32 0, ptr %214, align 8, !tbaa !66
  %215 = load ptr, ptr %4, align 8, !tbaa !11
  %216 = getelementptr inbounds nuw %struct.png_struct_def, ptr %215, i32 0, i32 16
  %217 = load i32, ptr %216, align 8, !tbaa !73
  %218 = and i32 %217, 2
  %219 = icmp ne i32 %218, 0
  br i1 %219, label %220, label %224

220:                                              ; preds = %202
  %221 = load ptr, ptr %4, align 8, !tbaa !11
  %222 = getelementptr inbounds nuw %struct.png_struct_def, ptr %221, i32 0, i32 19
  %223 = call i32 @deflateReset(ptr noundef %222)
  store i32 %223, ptr %13, align 4, !tbaa !8
  br label %241

224:                                              ; preds = %202
  %225 = load ptr, ptr %4, align 8, !tbaa !11
  %226 = getelementptr inbounds nuw %struct.png_struct_def, ptr %225, i32 0, i32 19
  %227 = load i32, ptr %8, align 4, !tbaa !8
  %228 = load i32, ptr %9, align 4, !tbaa !8
  %229 = load i32, ptr %10, align 4, !tbaa !8
  %230 = load i32, ptr %11, align 4, !tbaa !8
  %231 = load i32, ptr %12, align 4, !tbaa !8
  %232 = call i32 @deflateInit2_(ptr noundef %226, i32 noundef %227, i32 noundef %228, i32 noundef %229, i32 noundef %230, i32 noundef %231, ptr noundef @.str.46, i32 noundef 112)
  store i32 %232, ptr %13, align 4, !tbaa !8
  %233 = load i32, ptr %13, align 4, !tbaa !8
  %234 = icmp eq i32 %233, 0
  br i1 %234, label %235, label %240

235:                                              ; preds = %224
  %236 = load ptr, ptr %4, align 8, !tbaa !11
  %237 = getelementptr inbounds nuw %struct.png_struct_def, ptr %236, i32 0, i32 16
  %238 = load i32, ptr %237, align 8, !tbaa !73
  %239 = or i32 %238, 2
  store i32 %239, ptr %237, align 8, !tbaa !73
  br label %240

240:                                              ; preds = %235, %224
  br label %241

241:                                              ; preds = %240, %220
  %242 = load i32, ptr %13, align 4, !tbaa !8
  %243 = icmp eq i32 %242, 0
  br i1 %243, label %244, label %248

244:                                              ; preds = %241
  %245 = load i32, ptr %5, align 4, !tbaa !8
  %246 = load ptr, ptr %4, align 8, !tbaa !11
  %247 = getelementptr inbounds nuw %struct.png_struct_def, ptr %246, i32 0, i32 18
  store i32 %245, ptr %247, align 8, !tbaa !61
  br label %251

248:                                              ; preds = %241
  %249 = load ptr, ptr %4, align 8, !tbaa !11
  %250 = load i32, ptr %13, align 4, !tbaa !8
  call void @png_zstream_error(ptr noundef %249, i32 noundef %250)
  br label %251

251:                                              ; preds = %248, %244
  %252 = load i32, ptr %13, align 4, !tbaa !8
  call void @llvm.lifetime.end.p0(i64 4, ptr %13) #7
  call void @llvm.lifetime.end.p0(i64 4, ptr %12) #7
  call void @llvm.lifetime.end.p0(i64 4, ptr %11) #7
  call void @llvm.lifetime.end.p0(i64 4, ptr %10) #7
  call void @llvm.lifetime.end.p0(i64 4, ptr %9) #7
  call void @llvm.lifetime.end.p0(i64 4, ptr %8) #7
  ret i32 %252
}