; Function Attrs: nounwind uwtable
define internal fastcc noundef i32 @png_deflate_claim(ptr noalias noundef %0, i32 noundef range(i32 1229209940, 2052348021) %1, i64 noundef %2) unnamed_addr #1 {
  %4 = alloca [64 x i8], align 16
  %5 = getelementptr inbounds nuw i8, ptr %0, i64 312
  %6 = load i32, ptr %5, align 8, !tbaa !68
  %.not = icmp eq i32 %6, 0
  br i1 %.not, label %32, label %7

7:                                                ; preds = %3
  call void @llvm.lifetime.start.p0(i64 64, ptr nonnull %4) #12
  %8 = lshr i32 %1, 24
  %9 = trunc nuw nsw i32 %8 to i8
  store i8 %9, ptr %4, align 16, !tbaa !3
  %10 = lshr i32 %1, 16
  %11 = trunc i32 %10 to i8
  %12 = getelementptr inbounds nuw i8, ptr %4, i64 1
  store i8 %11, ptr %12, align 1, !tbaa !3
  %13 = lshr i32 %1, 8
  %14 = trunc i32 %13 to i8
  %15 = getelementptr inbounds nuw i8, ptr %4, i64 2
  store i8 %14, ptr %15, align 2, !tbaa !3
  %16 = trunc i32 %1 to i8
  %17 = getelementptr inbounds nuw i8, ptr %4, i64 3
  store i8 %16, ptr %17, align 1, !tbaa !3
  %18 = getelementptr inbounds nuw i8, ptr %4, i64 4
  store i8 58, ptr %18, align 4, !tbaa !3
  %19 = getelementptr inbounds nuw i8, ptr %4, i64 5
  store i8 32, ptr %19, align 1, !tbaa !3
  %20 = lshr i32 %6, 24
  %21 = trunc nuw i32 %20 to i8
  %22 = getelementptr inbounds nuw i8, ptr %4, i64 6
  store i8 %21, ptr %22, align 2, !tbaa !3
  %23 = lshr i32 %6, 16
  %24 = trunc i32 %23 to i8
  %25 = getelementptr inbounds nuw i8, ptr %4, i64 7
  store i8 %24, ptr %25, align 1, !tbaa !3
  %26 = lshr i32 %6, 8
  %27 = trunc i32 %26 to i8
  %28 = getelementptr inbounds nuw i8, ptr %4, i64 8
  store i8 %27, ptr %28, align 8, !tbaa !3
  %29 = trunc i32 %6 to i8
  %30 = getelementptr inbounds nuw i8, ptr %4, i64 9
  store i8 %29, ptr %30, align 1, !tbaa !3
  %31 = call i64 @png_safecat(ptr noundef nonnull %4, i64 noundef 64, i64 noundef 10, ptr noundef nonnull @.str.44) #12
  call void @png_error(ptr noundef nonnull %0, ptr noundef nonnull %4) #13
  unreachable

32:                                               ; preds = %3
  %33 = getelementptr inbounds nuw i8, ptr %0, i64 444
  %34 = load i32, ptr %33, align 4, !tbaa !80
  %35 = getelementptr inbounds nuw i8, ptr %0, i64 448
  %36 = load i32, ptr %35, align 8, !tbaa !81
  %37 = getelementptr inbounds nuw i8, ptr %0, i64 452
  %38 = load i32, ptr %37, align 4, !tbaa !82
  %39 = getelementptr inbounds nuw i8, ptr %0, i64 456
  %40 = load i32, ptr %39, align 8, !tbaa !83
  %41 = icmp eq i32 %1, 1229209940
  br i1 %41, label %42, label %52

42:                                               ; preds = %32
  %43 = getelementptr inbounds nuw i8, ptr %0, i64 304
  %44 = load i32, ptr %43, align 8, !tbaa !84
  %45 = and i32 %44, 1
  %.not71 = icmp eq i32 %45, 0
  br i1 %.not71, label %49, label %46

46:                                               ; preds = %42
  %47 = getelementptr inbounds nuw i8, ptr %0, i64 460
  %48 = load i32, ptr %47, align 4, !tbaa !85
  br label %63

49:                                               ; preds = %42
  %50 = getelementptr inbounds nuw i8, ptr %0, i64 622
  %51 = load i8, ptr %50, align 2, !tbaa !55
  %.not72 = icmp ne i8 %51, 8
  %. = zext i1 %.not72 to i32
  br label %63

52:                                               ; preds = %32
  %53 = getelementptr inbounds nuw i8, ptr %0, i64 464
  %54 = load i32, ptr %53, align 8, !tbaa !86
  %55 = getelementptr inbounds nuw i8, ptr %0, i64 468
  %56 = load i32, ptr %55, align 4, !tbaa !87
  %57 = getelementptr inbounds nuw i8, ptr %0, i64 472
  %58 = load i32, ptr %57, align 8, !tbaa !88
  %59 = getelementptr inbounds nuw i8, ptr %0, i64 476
  %60 = load i32, ptr %59, align 4, !tbaa !89
  %61 = getelementptr inbounds nuw i8, ptr %0, i64 480
  %62 = load i32, ptr %61, align 8, !tbaa !90
  br label %63

63:                                               ; preds = %49, %46, %52
  %.067 = phi i32 [ %34, %46 ], [ %54, %52 ], [ %34, %49 ]
  %.066 = phi i32 [ %36, %46 ], [ %56, %52 ], [ %36, %49 ]
  %.065 = phi i32 [ %38, %46 ], [ %58, %52 ], [ %38, %49 ]
  %.064 = phi i32 [ %40, %46 ], [ %60, %52 ], [ %40, %49 ]
  %.063 = phi i32 [ %48, %46 ], [ %62, %52 ], [ %., %49 ]
  %64 = icmp ult i64 %2, 16385
  br i1 %64, label %65, label %.loopexit

65:                                               ; preds = %63
  %66 = add nsw i32 %.065, -1
  %67 = shl nuw i32 1, %66
  %68 = add nuw nsw i64 %2, 262
  %69 = zext i32 %67 to i64
  %.not7388 = icmp samesign ugt i64 %68, %69
  br i1 %.not7388, label %.loopexit, label %.lr.ph.preheader

.lr.ph.preheader:                                 ; preds = %65
  %70 = trunc nuw i64 %68 to i32
  br label %.lr.ph

.lr.ph:                                           ; preds = %.lr.ph.preheader, %.lr.ph
  %.090 = phi i32 [ %71, %.lr.ph ], [ %67, %.lr.ph.preheader ]
  %.289 = phi i32 [ %72, %.lr.ph ], [ %.065, %.lr.ph.preheader ]
  %71 = lshr i32 %.090, 1
  %72 = add nsw i32 %.289, -1
  %.not73 = icmp samesign ult i32 %71, %70
  br i1 %.not73, label %.loopexit, label %.lr.ph, !llvm.loop !91

.loopexit:                                        ; preds = %.lr.ph, %65, %63
  %.1 = phi i32 [ %.065, %63 ], [ %.065, %65 ], [ %72, %.lr.ph ]
  %73 = getelementptr inbounds nuw i8, ptr %0, i64 304
  %74 = load i32, ptr %73, align 8, !tbaa !84
  %75 = and i32 %74, 2
  %.not74 = icmp eq i32 %75, 0
  br i1 %.not74, label %98, label %76

76:                                               ; preds = %.loopexit
  %77 = getelementptr inbounds nuw i8, ptr %0, i64 484
  %78 = load i32, ptr %77, align 4, !tbaa !92
  %.not75 = icmp eq i32 %78, %.067
  br i1 %.not75, label %79, label %91

79:                                               ; preds = %76
  %80 = getelementptr inbounds nuw i8, ptr %0, i64 488
  %81 = load i32, ptr %80, align 8, !tbaa !93
  %.not76 = icmp eq i32 %81, %.066
  br i1 %.not76, label %82, label %91

82:                                               ; preds = %79
  %83 = getelementptr inbounds nuw i8, ptr %0, i64 492
  %84 = load i32, ptr %83, align 4, !tbaa !94
  %.not77 = icmp eq i32 %84, %.1
  br i1 %.not77, label %85, label %91

85:                                               ; preds = %82
  %86 = getelementptr inbounds nuw i8, ptr %0, i64 496
  %87 = load i32, ptr %86, align 8, !tbaa !95
  %.not78 = icmp eq i32 %87, %.064
  br i1 %.not78, label %88, label %91

88:                                               ; preds = %85
  %89 = getelementptr inbounds nuw i8, ptr %0, i64 500
  %90 = load i32, ptr %89, align 4, !tbaa !96
  %.not79 = icmp eq i32 %90, %.063
  br i1 %.not79, label %98, label %91

91:                                               ; preds = %88, %85, %82, %79, %76
  %92 = getelementptr inbounds nuw i8, ptr %0, i64 320
  %93 = tail call i32 @deflateEnd(ptr noundef nonnull %92) #12
  %.not80 = icmp eq i32 %93, 0
  br i1 %.not80, label %95, label %94

94:                                               ; preds = %91
  tail call void @png_warning(ptr noundef nonnull %0, ptr noundef nonnull @.str.45) #12
  br label %95

95:                                               ; preds = %94, %91
  %96 = load i32, ptr %73, align 8, !tbaa !84
  %97 = and i32 %96, -3
  store i32 %97, ptr %73, align 8, !tbaa !84
  br label %98

98:                                               ; preds = %95, %88, %.loopexit
  %99 = phi i32 [ %97, %95 ], [ %74, %88 ], [ %74, %.loopexit ]
  %100 = getelementptr inbounds nuw i8, ptr %0, i64 320
  store ptr null, ptr %100, align 8, !tbaa !77
  %101 = getelementptr inbounds nuw i8, ptr %0, i64 328
  store i32 0, ptr %101, align 8, !tbaa !78
  %102 = getelementptr inbounds nuw i8, ptr %0, i64 344
  store ptr null, ptr %102, align 8, !tbaa !75
  %103 = getelementptr inbounds nuw i8, ptr %0, i64 352
  store i32 0, ptr %103, align 8, !tbaa !76
  %104 = and i32 %99, 2
  %.not81 = icmp eq i32 %104, 0
  br i1 %.not81, label %105, label %110

105:                                              ; preds = %98
  %106 = tail call i32 @deflateInit2_(ptr noundef nonnull %100, i32 noundef %.067, i32 noundef %.066, i32 noundef %.1, i32 noundef %.064, i32 noundef %.063, ptr noundef nonnull @.str.46, i32 noundef 112) #12
  %107 = icmp eq i32 %106, 0
  br i1 %107, label %.thread, label %.thread85

.thread:                                          ; preds = %105
  %108 = load i32, ptr %73, align 8, !tbaa !84
  %109 = or i32 %108, 2
  store i32 %109, ptr %73, align 8, !tbaa !84
  br label %113

110:                                              ; preds = %98
  %111 = tail call i32 @deflateReset(ptr noundef nonnull %100) #12
  %112 = icmp eq i32 %111, 0
  br i1 %112, label %113, label %.thread85

113:                                              ; preds = %.thread, %110
  store i32 %1, ptr %5, align 8, !tbaa !68
  br label %114

.thread85:                                        ; preds = %105, %110
  %.06287 = phi i32 [ %111, %110 ], [ %106, %105 ]
  tail call void @png_zstream_error(ptr noundef nonnull %0, i32 noundef %.06287) #12
  br label %114

114:                                              ; preds = %.thread85, %113
  %.06283 = phi i32 [ %.06287, %.thread85 ], [ 0, %113 ]
  ret i32 %.06283
}